(dp0
S'componentQuantities'
p1
(dp2
S'Bouncy Ball'
p3
Finf
sS'Ramp'
p4
I0
sS'See Saw'
p5
I2
sS'O'
p6
I0
sS'Fan'
p7
I1
sS'Futbol'
p8
I0
sS'X'
p9
I0
sS'Bowling Ball'
p10
I0
ssS'initialComponents'
p11
(dp12
g3
(lp13
sg4
(lp14
(lp15
(F1166.0
F423.0
tp16
a(I1101
I499
tp17
aasg5
(lp18
(lp19
(F931.0
F451.0
tp20
aasg6
(lp21
(lp22
(I1085
I391
tp23
aasg7
(lp24
sg8
(lp25
sg9
(lp26
(lp27
(I952
I238
tp28
aasg10
(lp29
(lp30
(F93.0
F82.0
tp31
aassS'name'
p32
S'Catapult!'
p33
sS'XOLocked'
p34
I01
s.