(dp0
S'componentQuantities'
p1
(dp2
S'Bouncy Ball'
p3
Finf
sS'Ramp'
p4
Finf
sS'See Saw'
p5
Finf
sS'Futbol'
p6
Finf
sS'Fan'
p7
Finf
sS'Bowling Ball'
p8
Finf
ssS'initialComponents'
p9
(dp10
g3
(lp11
sg4
(lp12
sg5
(lp13
sS'O'
p14
(lp15
(lp16
(I600
I375
tp17
aasg7
(lp18
sg6
(lp19
sS'X'
p20
(lp21
(lp22
(I600
I450
tp23
aasg8
(lp24
ssS'name'
p25
S'Make your own levels'
p26
sS'XOLocked'
p27
I00
s.