(dp0
S'componentQuantities'
p1
(dp2
S'Bouncy Ball'
p3
I0
sS'Ramp'
p4
I0
sS'See Saw'
p5
I0
sS'O'
p6
I0
sS'Fan'
p7
I0
sS'Futbol'
p8
I1
sS'X'
p9
I0
sS'Bowling Ball'
p10
I1
ssS'XOLocked'
p11
I01
sS'name'
p12
S'Intro - See Saw'
p13
sS'initialComponents'
p14
(dp15
g3
(lp16
sg4
(lp17
sg5
(lp18
(lp19
(F290.0
F691.0
tp20
aasg6
(lp21
(lp22
(I204
I573
tp23
aasg7
(lp24
sg8
(lp25
sg9
(lp26
(lp27
(I638
I731
tp28
aasg10
(lp29
ss.