(dp0
S'componentQuantities'
p1
(dp2
S'Bouncy Ball'
p3
I0
sS'Ramp'
p4
I1
sS'See Saw'
p5
I0
sS'O'
p6
I0
sS'Fan'
p7
I0
sS'Futbol'
p8
I0
sS'X'
p9
I0
sS'Bowling Ball'
p10
I0
ssS'XOLocked'
p11
I01
sS'name'
p12
S'Intro - Ramp'
p13
sS'initialComponents'
p14
(dp15
g3
(lp16
sg4
(lp17
(lp18
(F44.0
F195.0
tp19
a(I164
I270
tp20
aasg5
(lp21
sg6
(lp22
(lp23
(I93
I165
tp24
aasg7
(lp25
sg8
(lp26
sg9
(lp27
(lp28
(I657
I723
tp29
aasg10
(lp30
ss.