(dp0
S'componentQuantities'
p1
(dp2
S'Bouncy Ball'
p3
I5
sS'Ramp'
p4
I1
sS'See Saw'
p5
I0
sS'O'
p6
I0
sS'Fan'
p7
I1
sS'Futbol'
p8
I1
sS'X'
p9
I0
sS'Bowling Ball'
p10
I1
ssS'XOLocked'
p11
I01
sS'name'
p12
S'Trap Door'
p13
sS'initialComponents'
p14
(dp15
g3
(lp16
sg4
(lp17
(lp18
(F13.0
F100.0
tp19
a(I529
I425
tp20
aasg5
(lp21
(lp22
(F720.0
F409.0
tp23
aasg6
(lp24
(lp25
(I74
I90
tp26
aasg7
(lp27
sg8
(lp28
sg9
(lp29
(lp30
(I543
I613
tp31
aasg10
(lp32
ss.